target datalayout = "e-m:e-p270:32:32-p271:32:32-p272:64:64-i64:64-i128:128-f80:128-n8:16:32:64-S128"
target triple = "x86_64-unknown-linux-gnu"

%"class.Assimp::Compression" = type { ptr }
%"struct.Assimp::Compression::impl" = type <{ i8, [7 x i8], %struct.z_stream_s, i32, [4 x i8] }>
%struct.z_stream_s = type { ptr, i32, i64, ptr, i32, i64, ptr, ptr, ptr, ptr, ptr, i32, i64, i64 }

@_ZTI17DeadlyImportError = linkonce_odr constant { ptr, ptr, ptr } { ptr getelementptr inbounds (ptr, ptr @_ZTVN10__cxxabiv120__si_class_type_infoE, i64 2), ptr @_ZTS17DeadlyImportError, ptr @_ZTI15DeadlyErrorBase }, comdat, align 8
@.str.3 = private unnamed_addr constant [46 x i8] c"X: Failed to decompress MSZIP-compressed data\00", align 1

; Function Attrs: mustprogress uwtable
define hidden noundef i64 @_ZN6Assimp11Compression15decompressBlockEPKvmPcm(ptr noundef nonnull align 8 dereferenceable(8) %this, ptr noundef %data, i64 noundef %in, ptr noundef %out, i64 noundef %availableOut) #2 align 2 personality ptr @__gxx_personality_v0 {
entry:
  %retval = alloca i64, align 8
  %this.addr = alloca ptr, align 8
  %data.addr = alloca ptr, align 8
  %in.addr = alloca i64, align 8
  %out.addr = alloca ptr, align 8
  %availableOut.addr = alloca i64, align 8
  %ret = alloca i32, align 4
  %exn.slot = alloca ptr, align 8
  %ehselector.slot = alloca i32, align 4
  store ptr %this, ptr %this.addr, align 8
  store ptr %data, ptr %data.addr, align 8
  store i64 %in, ptr %in.addr, align 8
  store ptr %out, ptr %out.addr, align 8
  store i64 %availableOut, ptr %availableOut.addr, align 8
  %this1 = load ptr, ptr %this.addr, align 8
  %0 = load ptr, ptr %data.addr, align 8
  %cmp = icmp eq ptr %0, null
  br i1 %cmp, label %if.then, label %lor.lhs.false

lor.lhs.false:                                    ; preds = %entry
  %1 = load i64, ptr %in.addr, align 8
  %cmp2 = icmp eq i64 %1, 0
  br i1 %cmp2, label %if.then, label %lor.lhs.false3

lor.lhs.false3:                                   ; preds = %lor.lhs.false
  %2 = load ptr, ptr %out.addr, align 8
  %cmp4 = icmp eq ptr %2, null
  br i1 %cmp4, label %if.then, label %lor.lhs.false5

lor.lhs.false5:                                   ; preds = %lor.lhs.false3
  %3 = load i64, ptr %availableOut.addr, align 8
  %cmp6 = icmp eq i64 %3, 0
  br i1 %cmp6, label %if.then, label %if.end

if.then:                                          ; preds = %lor.lhs.false5, %lor.lhs.false3, %lor.lhs.false, %entry
  store i64 0, ptr %retval, align 8
  br label %return

if.end:                                           ; preds = %lor.lhs.false5
  %4 = load ptr, ptr %data.addr, align 8
  %mImpl = getelementptr inbounds %"class.Assimp::Compression", ptr %this1, i32 0, i32 0
  %5 = load ptr, ptr %mImpl, align 8
  %mZSstream = getelementptr inbounds %"struct.Assimp::Compression::impl", ptr %5, i32 0, i32 2
  %next_in = getelementptr inbounds %struct.z_stream_s, ptr %mZSstream, i32 0, i32 0
  store ptr %4, ptr %next_in, align 8
  %6 = load i64, ptr %in.addr, align 8
  %conv = trunc i64 %6 to i32
  %mImpl7 = getelementptr inbounds %"class.Assimp::Compression", ptr %this1, i32 0, i32 0
  %7 = load ptr, ptr %mImpl7, align 8
  %mZSstream8 = getelementptr inbounds %"struct.Assimp::Compression::impl", ptr %7, i32 0, i32 2
  %avail_in = getelementptr inbounds %struct.z_stream_s, ptr %mZSstream8, i32 0, i32 1
  store i32 %conv, ptr %avail_in, align 8
  %8 = load ptr, ptr %out.addr, align 8
  %mImpl9 = getelementptr inbounds %"class.Assimp::Compression", ptr %this1, i32 0, i32 0
  %9 = load ptr, ptr %mImpl9, align 8
  %mZSstream10 = getelementptr inbounds %"struct.Assimp::Compression::impl", ptr %9, i32 0, i32 2
  %next_out = getelementptr inbounds %struct.z_stream_s, ptr %mZSstream10, i32 0, i32 3
  store ptr %8, ptr %next_out, align 8
  %10 = load i64, ptr %availableOut.addr, align 8
  %conv11 = trunc i64 %10 to i32
  %mImpl12 = getelementptr inbounds %"class.Assimp::Compression", ptr %this1, i32 0, i32 0
  %11 = load ptr, ptr %mImpl12, align 8
  %mZSstream13 = getelementptr inbounds %"struct.Assimp::Compression::impl", ptr %11, i32 0, i32 2
  %avail_out = getelementptr inbounds %struct.z_stream_s, ptr %mZSstream13, i32 0, i32 4
  store i32 %conv11, ptr %avail_out, align 8
  %mImpl14 = getelementptr inbounds %"class.Assimp::Compression", ptr %this1, i32 0, i32 0
  %12 = load ptr, ptr %mImpl14, align 8
  %mZSstream15 = getelementptr inbounds %"struct.Assimp::Compression::impl", ptr %12, i32 0, i32 2
  %call = call i32 @inflate(ptr noundef %mZSstream15, i32 noundef 2)
  store i32 %call, ptr %ret, align 4
  %13 = load i32, ptr %ret, align 4
  %cmp16 = icmp ne i32 %13, 0
  br i1 %cmp16, label %land.lhs.true, label %if.end19

land.lhs.true:                                    ; preds = %if.end
  %14 = load i32, ptr %ret, align 4
  %cmp17 = icmp ne i32 %14, 1
  br i1 %cmp17, label %if.then18, label %if.end19

if.then18:                                        ; preds = %land.lhs.true
  %exception = call ptr @__cxa_allocate_exception(i64 16) #14
  invoke void @_ZN17DeadlyImportErrorC2EPKc(ptr noundef nonnull align 8 dereferenceable(16) %exception, ptr noundef @.str.3)
          to label %invoke.cont unwind label %lpad

invoke.cont:                                      ; preds = %if.then18
  call void @__cxa_throw(ptr %exception, ptr @_ZTI17DeadlyImportError, ptr @_ZN17DeadlyImportErrorD2Ev) #15
  unreachable

lpad:                                             ; preds = %if.then18
  %15 = landingpad { ptr, i32 }
          cleanup
  %16 = extractvalue { ptr, i32 } %15, 0
  store ptr %16, ptr %exn.slot, align 8
  %17 = extractvalue { ptr, i32 } %15, 1
  store i32 %17, ptr %ehselector.slot, align 4
  call void @__cxa_free_exception(ptr %exception) #14
  br label %eh.resume

if.end19:                                         ; preds = %land.lhs.true, %if.end
  %mImpl20 = getelementptr inbounds %"class.Assimp::Compression", ptr %this1, i32 0, i32 0
  %18 = load ptr, ptr %mImpl20, align 8
  %mZSstream21 = getelementptr inbounds %"struct.Assimp::Compression::impl", ptr %18, i32 0, i32 2
  %call22 = call i32 @inflateReset(ptr noundef %mZSstream21)
  %mImpl23 = getelementptr inbounds %"class.Assimp::Compression", ptr %this1, i32 0, i32 0
  %19 = load ptr, ptr %mImpl23, align 8
  %mZSstream24 = getelementptr inbounds %"struct.Assimp::Compression::impl", ptr %19, i32 0, i32 2
  %20 = load ptr, ptr %out.addr, align 8
  %21 = load i64, ptr %availableOut.addr, align 8
  %conv25 = trunc i64 %21 to i32
  %mImpl26 = getelementptr inbounds %"class.Assimp::Compression", ptr %this1, i32 0, i32 0
  %22 = load ptr, ptr %mImpl26, align 8
  %mZSstream27 = getelementptr inbounds %"struct.Assimp::Compression::impl", ptr %22, i32 0, i32 2
  %avail_out28 = getelementptr inbounds %struct.z_stream_s, ptr %mZSstream27, i32 0, i32 4
  %23 = load i32, ptr %avail_out28, align 8
  %sub = sub i32 %conv25, %23
  %call29 = call i32 @inflateSetDictionary(ptr noundef %mZSstream24, ptr noundef %20, i32 noundef %sub)
  %24 = load i64, ptr %availableOut.addr, align 8
  %mImpl30 = getelementptr inbounds %"class.Assimp::Compression", ptr %this1, i32 0, i32 0
  %25 = load ptr, ptr %mImpl30, align 8
  %mZSstream31 = getelementptr inbounds %"struct.Assimp::Compression::impl", ptr %25, i32 0, i32 2
  %avail_out32 = getelementptr inbounds %struct.z_stream_s, ptr %mZSstream31, i32 0, i32 4
  %26 = load i32, ptr %avail_out32, align 8
  %conv33 = zext i32 %26 to i64
  %sub34 = sub i64 %24, %conv33
  store i64 %sub34, ptr %retval, align 8
  br label %return

return:                                           ; preds = %if.end19, %if.then
  %27 = load i64, ptr %retval, align 8
  ret i64 %27

eh.resume:                                        ; preds = %lpad
  %exn = load ptr, ptr %exn.slot, align 8
  %sel = load i32, ptr %ehselector.slot, align 4
  %lpad.val = insertvalue { ptr, i32 } poison, ptr %exn, 0
  %lpad.val35 = insertvalue { ptr, i32 } %lpad.val, i32 %sel, 1
  resume { ptr, i32 } %lpad.val35
}