; Function Attrs: mustprogress uwtable
define hidden noundef i64 @_ZN6Assimp11Compression15decompressBlockEPKvmPcm(ptr nocapture noundef nonnull readonly align 8 dereferenceable(8) %this, ptr noundef %data, i64 noundef %in, ptr noundef %out, i64 noundef %availableOut) local_unnamed_addr #0 align 2 personality ptr @__gxx_personality_v0 {
entry:
  %cmp = icmp eq ptr %data, null
  %cmp2 = icmp eq i64 %in, 0
  %or.cond = or i1 %cmp, %cmp2
  %cmp4 = icmp eq ptr %out, null
  %or.cond1 = or i1 %or.cond, %cmp4
  %cmp6 = icmp eq i64 %availableOut, 0
  %or.cond2 = or i1 %or.cond1, %cmp6
  br i1 %or.cond2, label %return, label %if.end

if.end:                                           ; preds = %entry
  %0 = load ptr, ptr %this, align 8
  %mZSstream = getelementptr inbounds i8, ptr %0, i64 8
  store ptr %data, ptr %mZSstream, align 8
  %conv = trunc i64 %in to i32
  %1 = load ptr, ptr %this, align 8
  %avail_in = getelementptr inbounds i8, ptr %1, i64 16
  store i32 %conv, ptr %avail_in, align 8
  %2 = load ptr, ptr %this, align 8
  %next_out = getelementptr inbounds i8, ptr %2, i64 32
  store ptr %out, ptr %next_out, align 8
  %conv11 = trunc i64 %availableOut to i32
  %3 = load ptr, ptr %this, align 8
  %avail_out = getelementptr inbounds i8, ptr %3, i64 40
  store i32 %conv11, ptr %avail_out, align 8
  %4 = load ptr, ptr %this, align 8
  %mZSstream15 = getelementptr inbounds i8, ptr %4, i64 8
  %call = tail call i32 @inflate(ptr noundef nonnull %mZSstream15, i32 noundef 2)
  %or.cond3 = icmp ugt i32 %call, 1
  br i1 %or.cond3, label %if.then18, label %if.end19

if.then18:                                        ; preds = %if.end
  %exception = tail call ptr @__cxa_allocate_exception(i64 16) #17
  invoke void @_ZN17DeadlyImportErrorC2EPKc(ptr noundef nonnull align 8 dereferenceable(16) %exception, ptr noundef nonnull @.str.3)
          to label %invoke.cont unwind label %lpad

invoke.cont:                                      ; preds = %if.then18
  tail call void @__cxa_throw(ptr nonnull %exception, ptr nonnull @_ZTI17DeadlyImportError, ptr nonnull @_ZN17DeadlyImportErrorD2Ev) #18
  unreachable

lpad:                                             ; preds = %if.then18
  %5 = landingpad { ptr, i32 }
          cleanup
  tail call void @__cxa_free_exception(ptr %exception) #17
  resume { ptr, i32 } %5

if.end19:                                         ; preds = %if.end
  %6 = load ptr, ptr %this, align 8
  %mZSstream21 = getelementptr inbounds i8, ptr %6, i64 8
  %call22 = tail call i32 @inflateReset(ptr noundef nonnull %mZSstream21)
  %7 = load ptr, ptr %this, align 8
  %mZSstream24 = getelementptr inbounds i8, ptr %7, i64 8
  %avail_out28 = getelementptr inbounds i8, ptr %7, i64 40
  %8 = load i32, ptr %avail_out28, align 8
  %sub = sub i32 %conv11, %8
  %call29 = tail call i32 @inflateSetDictionary(ptr noundef nonnull %mZSstream24, ptr noundef nonnull %out, i32 noundef %sub)
  %9 = load ptr, ptr %this, align 8
  %avail_out32 = getelementptr inbounds i8, ptr %9, i64 40
  %10 = load i32, ptr %avail_out32, align 8
  %conv33 = zext i32 %10 to i64
  %sub34 = sub i64 %availableOut, %conv33
  br label %return

return:                                           ; preds = %entry, %if.end19
  %retval.0 = phi i64 [ %sub34, %if.end19 ], [ 0, %entry ]
  ret i64 %retval.0
}